target datalayout = "e-m:e-p270:32:32-p271:32:32-p272:64:64-i64:64-i128:128-f80:128-n8:16:32:64-S128"
target triple = "x86_64-pc-linux-gnu"

%struct.Scheduler = type { ptr, ptr, i32, ptr, i32, i32, %union.pthread_mutex_t, i32, i32, %union.pthread_mutex_t, %union.pthread_cond_t, ptr, i32, ptr, i32, ptr, i32, ptr, i32, ptr, i32, i32, i32, %union.pthread_mutex_t, i64 }
%union.pthread_cond_t = type { %struct.__pthread_cond_s }
%struct.__pthread_cond_s = type { %union.__atomic_wide_counter, %union.__atomic_wide_counter, [2 x i32], [2 x i32], i32, i32, [2 x i32] }
%union.__atomic_wide_counter = type { i64 }
%union.pthread_mutex_t = type { %struct.__pthread_mutex_s }
%struct.__pthread_mutex_s = type { i32, i32, i32, i32, i32, i16, i16, %struct.__pthread_internal_list }
%struct.__pthread_internal_list = type { ptr, ptr }
%struct.SchTask = type { ptr, %struct.SchedulerNode, ptr, ptr, i64, i32 }
%struct.SchedulerNode = type { i32, i32, i32 }
%struct.SchMux = type { ptr, ptr, i32, i32, ptr, %struct.SchTask, i32, ptr, i32, ptr }
%struct.SchMuxStream = type { %struct.SchedulerNode, %struct.SchedulerNode, ptr, i32, %struct.PreMuxQueue, i32, i64, i32 }
%struct.PreMuxQueue = type { ptr, i32, i64, i64 }

@.str = private unnamed_addr constant [30 x i8] c"Assertion %s failed at %s:%d\0A\00", align 1
@.str.1 = private unnamed_addr constant [22 x i8] c"mux_idx < sch->nb_mux\00", align 1
@.str.2 = private unnamed_addr constant [23 x i8] c"fftools/ffmpeg_sched.c\00", align 1

; Function Attrs: nounwind uwtable
define i32 @sch_add_mux_stream(ptr noundef %0, i32 noundef %1) #0 {
  %3 = alloca i32, align 4
  %4 = alloca ptr, align 8
  %5 = alloca i32, align 4
  %6 = alloca ptr, align 8
  %7 = alloca ptr, align 8
  %8 = alloca i32, align 4
  %9 = alloca i32, align 4
  %10 = alloca i32, align 4
  store ptr %0, ptr %4, align 8, !tbaa !10
  store i32 %1, ptr %5, align 4, !tbaa !12
  call void @llvm.lifetime.start.p0(i64 8, ptr %6) #9
  call void @llvm.lifetime.start.p0(i64 8, ptr %7) #9
  call void @llvm.lifetime.start.p0(i64 4, ptr %8) #9
  call void @llvm.lifetime.start.p0(i64 4, ptr %9) #9
  br label %11

11:                                               ; preds = %2
  %12 = load i32, ptr %5, align 4, !tbaa !12
  %13 = load ptr, ptr %4, align 8, !tbaa !10
  %14 = getelementptr inbounds nuw %struct.Scheduler, ptr %13, i32 0, i32 4
  %15 = load i32, ptr %14, align 8, !tbaa !39
  %16 = icmp ult i32 %12, %15
  br i1 %16, label %18, label %17

17:                                               ; preds = %11
  call void (ptr, i32, ptr, ...) @av_log(ptr noundef null, i32 noundef 0, ptr noundef @.str, ptr noundef @.str.1, ptr noundef @.str.2, i32 noundef 655)
  call void @abort() #10
  unreachable

18:                                               ; preds = %11
  br label %19

19:                                               ; preds = %18
  br label %20

20:                                               ; preds = %19
  %21 = load ptr, ptr %4, align 8, !tbaa !10
  %22 = getelementptr inbounds nuw %struct.Scheduler, ptr %21, i32 0, i32 3
  %23 = load ptr, ptr %22, align 8, !tbaa !40
  %24 = load i32, ptr %5, align 4, !tbaa !12
  %25 = zext i32 %24 to i64
  %26 = getelementptr inbounds nuw %struct.SchMux, ptr %23, i64 %25
  store ptr %26, ptr %6, align 8, !tbaa !41
  %27 = load ptr, ptr %6, align 8, !tbaa !41
  %28 = getelementptr inbounds nuw %struct.SchMux, ptr %27, i32 0, i32 1
  %29 = load ptr, ptr %6, align 8, !tbaa !41
  %30 = getelementptr inbounds nuw %struct.SchMux, ptr %29, i32 0, i32 2
  %31 = load ptr, ptr %6, align 8, !tbaa !41
  %32 = getelementptr inbounds nuw %struct.SchMux, ptr %31, i32 0, i32 2
  %33 = load i32, ptr %32, align 8, !tbaa !42
  %34 = add i32 %33, 1
  %35 = call i32 @grow_array(ptr noundef %28, i32 noundef 96, ptr noundef %30, i32 noundef %34)
  store i32 %35, ptr %9, align 4, !tbaa !12
  %36 = load i32, ptr %9, align 4, !tbaa !12
  %37 = icmp slt i32 %36, 0
  br i1 %37, label %38, label %40

38:                                               ; preds = %20
  %39 = load i32, ptr %9, align 4, !tbaa !12
  store i32 %39, ptr %3, align 4
  store i32 1, ptr %10, align 4
  br label %65

40:                                               ; preds = %20
  %41 = load ptr, ptr %6, align 8, !tbaa !41
  %42 = getelementptr inbounds nuw %struct.SchMux, ptr %41, i32 0, i32 2
  %43 = load i32, ptr %42, align 8, !tbaa !42
  %44 = sub i32 %43, 1
  store i32 %44, ptr %8, align 4, !tbaa !12
  %45 = load ptr, ptr %6, align 8, !tbaa !41
  %46 = getelementptr inbounds nuw %struct.SchMux, ptr %45, i32 0, i32 1
  %47 = load ptr, ptr %46, align 8, !tbaa !46
  %48 = load i32, ptr %8, align 4, !tbaa !12
  %49 = zext i32 %48 to i64
  %50 = getelementptr inbounds nuw %struct.SchMuxStream, ptr %47, i64 %49
  store ptr %50, ptr %7, align 8, !tbaa !47
  %51 = call ptr @av_fifo_alloc2(i64 noundef 8, i64 noundef 8, i32 noundef 0)
  %52 = load ptr, ptr %7, align 8, !tbaa !47
  %53 = getelementptr inbounds nuw %struct.SchMuxStream, ptr %52, i32 0, i32 4
  %54 = getelementptr inbounds nuw %struct.PreMuxQueue, ptr %53, i32 0, i32 0
  store ptr %51, ptr %54, align 8, !tbaa !48
  %55 = load ptr, ptr %7, align 8, !tbaa !47
  %56 = getelementptr inbounds nuw %struct.SchMuxStream, ptr %55, i32 0, i32 4
  %57 = getelementptr inbounds nuw %struct.PreMuxQueue, ptr %56, i32 0, i32 0
  %58 = load ptr, ptr %57, align 8, !tbaa !48
  %59 = icmp ne ptr %58, null
  br i1 %59, label %61, label %60

60:                                               ; preds = %40
  store i32 -12, ptr %3, align 4
  store i32 1, ptr %10, align 4
  br label %65

61:                                               ; preds = %40
  %62 = load ptr, ptr %7, align 8, !tbaa !47
  %63 = getelementptr inbounds nuw %struct.SchMuxStream, ptr %62, i32 0, i32 6
  store i64 -9223372036854775808, ptr %63, align 8, !tbaa !108
  %64 = load i32, ptr %8, align 4, !tbaa !12
  store i32 %64, ptr %3, align 4
  store i32 1, ptr %10, align 4
  br label %65

65:                                               ; preds = %61, %60, %38
  call void @llvm.lifetime.end.p0(i64 4, ptr %9) #9
  call void @llvm.lifetime.end.p0(i64 4, ptr %8) #9
  call void @llvm.lifetime.end.p0(i64 8, ptr %7) #9
  call void @llvm.lifetime.end.p0(i64 8, ptr %6) #9
  %66 = load i32, ptr %3, align 4
  ret i32 %66
}