; Function Attrs: nounwind uwtable
define i32 @sch_add_mux_stream(ptr noundef readonly captures(none) %0, i32 noundef %1) local_unnamed_addr #0 {
  %3 = getelementptr inbounds nuw i8, ptr %0, i64 32
  %4 = load i32, ptr %3, align 8, !tbaa !20
  %5 = icmp ult i32 %1, %4
  br i1 %5, label %7, label %6

6:                                                ; preds = %2
  tail call void (ptr, i32, ptr, ...) @av_log(ptr noundef null, i32 noundef 0, ptr noundef nonnull @.str, ptr noundef nonnull @.str.1, ptr noundef nonnull @.str.2, i32 noundef 655) #9
  tail call void @abort() #10
  unreachable

7:                                                ; preds = %2
  %8 = getelementptr inbounds nuw i8, ptr %0, i64 24
  %9 = load ptr, ptr %8, align 8, !tbaa !35
  %10 = zext i32 %1 to i64
  %11 = getelementptr inbounds nuw %struct.SchMux, ptr %9, i64 %10
  %12 = getelementptr inbounds nuw i8, ptr %11, i64 8
  %13 = getelementptr inbounds nuw i8, ptr %11, i64 16
  %14 = load i32, ptr %13, align 8, !tbaa !36
  %15 = add i32 %14, 1
  %16 = tail call i32 @grow_array(ptr noundef nonnull %12, i32 noundef 96, ptr noundef nonnull %13, i32 noundef %15) #9
  %17 = icmp slt i32 %16, 0
  br i1 %17, label %28, label %18

18:                                               ; preds = %7
  %19 = load i32, ptr %13, align 8, !tbaa !36
  %20 = add i32 %19, -1
  %21 = load ptr, ptr %12, align 8, !tbaa !41
  %22 = zext i32 %20 to i64
  %23 = getelementptr inbounds nuw %struct.SchMuxStream, ptr %21, i64 %22
  %24 = tail call ptr @av_fifo_alloc2(i64 noundef 8, i64 noundef 8, i32 noundef 0) #9
  %25 = getelementptr inbounds nuw i8, ptr %23, i64 40
  store ptr %24, ptr %25, align 8, !tbaa !42
  %.not = icmp eq ptr %24, null
  br i1 %.not, label %28, label %26

26:                                               ; preds = %18
  %27 = getelementptr inbounds nuw i8, ptr %23, i64 80
  store i64 -9223372036854775808, ptr %27, align 8, !tbaa !80
  br label %28

28:                                               ; preds = %18, %7, %26
  %.0 = phi i32 [ %20, %26 ], [ %16, %7 ], [ -12, %18 ]
  ret i32 %.0
}